(dp1
S'failed'
p2
(lp3
S'7'
asS'source_names'
p4
(lp5
S'.'
asS'ids'
p6
(dp7
I1
(S'/home/kiran/.qgis2/python/plugins/tower_predictor/test/test_init.py'
S'tower_predictor.test.test_init'
p8
S'TestInit.test_read_init'
tp9
sI2
(S'/home/kiran/.qgis2/python/plugins/tower_predictor/test/test_qgis_environment.py'
S'tower_predictor.test.test_qgis_environment'
p10
S'QGISTest.test_projection'
tp11
sI3
(S'/home/kiran/.qgis2/python/plugins/tower_predictor/test/test_qgis_environment.py'
g10
S'QGISTest.test_qgis_environment'
tp12
sI4
(S'/home/kiran/.qgis2/python/plugins/tower_predictor/test/test_resources.py'
S'tower_predictor.test.test_resources'
p13
S'tower_predictorDialogTest.test_icon_png'
tp14
sI5
(S'/home/kiran/.qgis2/python/plugins/tower_predictor/test/test_tower_predictor_dialog.py'
S'tower_predictor.test.test_tower_predictor_dialog'
p15
S'tower_predictorDialogTest.test_dialog_cancel'
tp16
sI6
(S'/home/kiran/.qgis2/python/plugins/tower_predictor/test/test_tower_predictor_dialog.py'
g15
S'tower_predictorDialogTest.test_dialog_ok'
tp17
sI7
(S'/home/kiran/.qgis2/python/plugins/tower_predictor/test/test_translations.py'
S'tower_predictor.test.test_translations'
p18
S'SafeTranslationsTest.test_qgis_translations'
tp19
ss.